target datalayout = "e-m:e-p270:32:32-p271:32:32-p272:64:64-i64:64-i128:128-f80:128-n8:16:32:64-S128"
target triple = "x86_64-pc-linux-gnu"

%struct.H5_user_cb_state_t = type { %struct.H5E_user_cb_state_t }
%struct.H5E_user_cb_state_t = type { i32, %union.anon, ptr }
%union.anon = type { ptr }
%struct.H5FD_class_t = type { i32, i32, ptr, i64, i32, ptr, ptr, ptr, ptr, i64, ptr, ptr, ptr, i64, ptr, ptr, ptr, ptr, ptr, ptr, ptr, ptr, ptr, ptr, ptr, ptr, ptr, ptr, ptr, ptr, ptr, ptr, ptr, ptr, ptr, ptr, ptr, ptr, ptr, [7 x i32] }

@H5FD_init_g = external global i8, align 1
@H5_libterm_g = external global i8, align 1

; Function Attrs: nounwind uwtable
define i32 @H5FD_driver_query(ptr noundef %0, ptr noundef %1) #0 {
  %3 = alloca ptr, align 8
  %4 = alloca ptr, align 8
  %5 = alloca i32, align 4
  %6 = alloca %struct.H5_user_cb_state_t, align 8
  store ptr %0, ptr %3, align 8, !tbaa !76
  store ptr %1, ptr %4, align 8, !tbaa !8
  call void @llvm.lifetime.start.p0(i64 4, ptr %5) #8
  store i32 0, ptr %5, align 4, !tbaa !12
  %7 = load i8, ptr @H5FD_init_g, align 1, !tbaa !14, !range !16, !noundef !17
  %8 = trunc i8 %7 to i1
  br i1 %8, label %13, label %9

9:                                                ; preds = %2
  %10 = load i8, ptr @H5_libterm_g, align 1, !tbaa !14, !range !16, !noundef !17
  %11 = trunc i8 %10 to i1
  %12 = xor i1 %11, true
  br label %13

13:                                               ; preds = %9, %2
  %14 = phi i1 [ true, %2 ], [ %12, %9 ]
  %15 = xor i1 %14, true
  %16 = xor i1 %15, true
  %17 = zext i1 %16 to i32
  %18 = sext i32 %17 to i64
  %19 = call i64 @llvm.expect.i64(i64 %18, i64 1)
  %20 = icmp ne i64 %19, 0
  br i1 %20, label %21, label %44

21:                                               ; preds = %13
  %22 = load ptr, ptr %3, align 8, !tbaa !76
  %23 = getelementptr inbounds nuw %struct.H5FD_class_t, ptr %22, i32 0, i32 19
  %24 = load ptr, ptr %23, align 8, !tbaa !77
  %25 = icmp ne ptr %24, null
  br i1 %25, label %26, label %41

26:                                               ; preds = %21
  call void @llvm.lifetime.start.p0(i64 24, ptr %6) #8
  %27 = call i32 @H5_user_cb_prepare(ptr noundef %6)
  %28 = icmp slt i32 %27, 0
  br i1 %28, label %29, label %30

29:                                               ; preds = %26
  store i32 -1, ptr %5, align 4, !tbaa !12
  br label %40

30:                                               ; preds = %26
  %31 = load ptr, ptr %3, align 8, !tbaa !76
  %32 = getelementptr inbounds nuw %struct.H5FD_class_t, ptr %31, i32 0, i32 19
  %33 = load ptr, ptr %32, align 8, !tbaa !77
  %34 = load ptr, ptr %4, align 8, !tbaa !8
  %35 = call i32 %33(ptr noundef null, ptr noundef %34)
  store i32 %35, ptr %5, align 4, !tbaa !12
  %36 = call i32 @H5_user_cb_restore(ptr noundef %6)
  %37 = icmp slt i32 %36, 0
  br i1 %37, label %38, label %39

38:                                               ; preds = %30
  store i32 -1, ptr %5, align 4, !tbaa !12
  br label %39

39:                                               ; preds = %38, %30
  br label %40

40:                                               ; preds = %39, %29
  call void @llvm.lifetime.end.p0(i64 24, ptr %6) #8
  br label %43

41:                                               ; preds = %21
  %42 = load ptr, ptr %4, align 8, !tbaa !8
  store i64 0, ptr %42, align 8, !tbaa !10
  br label %43

43:                                               ; preds = %41, %40
  br label %44

44:                                               ; preds = %43, %13
  %45 = load i32, ptr %5, align 4, !tbaa !12
  call void @llvm.lifetime.end.p0(i64 4, ptr %5) #8
  ret i32 %45
}