; Function Attrs: nounwind uwtable
define i32 @H5FD_driver_query(ptr noundef readonly captures(none) %0, ptr noundef %1) local_unnamed_addr #0 {
  %3 = alloca %struct.H5_user_cb_state_t, align 8
  %4 = load i8, ptr @H5FD_init_g, align 1, !tbaa !3, !range !7, !noundef !8
  %5 = trunc nuw i8 %4 to i1
  %6 = load i8, ptr @H5_libterm_g, align 1, !range !7
  %7 = trunc nuw i8 %6 to i1
  %8 = xor i1 %7, true
  %9 = select i1 %5, i1 true, i1 %8
  br i1 %9, label %10, label %22, !prof !9

10:                                               ; preds = %2
  %11 = getelementptr inbounds nuw i8, ptr %0, i64 144
  %12 = load ptr, ptr %11, align 8, !tbaa !69
  %.not = icmp eq ptr %12, null
  br i1 %.not, label %21, label %13

13:                                               ; preds = %10
  call void @llvm.lifetime.start.p0(i64 24, ptr nonnull %3) #12
  %14 = call i32 @H5_user_cb_prepare(ptr noundef nonnull %3) #12
  %15 = icmp slt i32 %14, 0
  br i1 %15, label %20, label %16

16:                                               ; preds = %13
  %17 = load ptr, ptr %11, align 8, !tbaa !69
  %18 = call i32 %17(ptr noundef null, ptr noundef %1) #12
  %19 = call i32 @H5_user_cb_restore(ptr noundef nonnull %3) #12
  %.inv = icmp sgt i32 %19, -1
  %spec.select = select i1 %.inv, i32 %18, i32 -1
  br label %20

20:                                               ; preds = %16, %13
  %.1 = phi i32 [ -1, %13 ], [ %spec.select, %16 ]
  call void @llvm.lifetime.end.p0(i64 24, ptr nonnull %3) #12
  br label %22

21:                                               ; preds = %10
  store i64 0, ptr %1, align 8, !tbaa !10
  br label %22

22:                                               ; preds = %20, %21, %2
  %.0 = phi i32 [ %.1, %20 ], [ 0, %21 ], [ 0, %2 ]
  ret i32 %.0
}